; Function Attrs: nofree null_pointer_is_valid sspstrong uwtable
define internal void @padd_time(ptr noundef %0, i32 noundef %1) #7 {
  %3 = lshr i32 %1, 11
  %4 = and i32 %3, 31
  %5 = lshr i32 %1, 5
  %6 = and i32 %5, 63
  %7 = shl i32 %1, 1
  %8 = and i32 %7, 62
  %9 = tail call i32 (ptr, i64, i32, i64, ptr, ...) @__snprintf_chk(ptr noundef %0, i64 noundef 240, i32 noundef 2, i64 noundef -1, ptr noundef nonnull @.str.7830, i32 noundef %4, i32 noundef %6, i32 noundef %8)
  ret void
}